target datalayout = "e-m:e-p270:32:32-p271:32:32-p272:64:64-i64:64-i128:128-f80:128-n8:16:32:64-S128"
target triple = "x86_64-pc-linux-gnu"

%struct.ZSTD_customMem = type { ptr, ptr, ptr }
%struct.ZSTD_frameParameters = type { i32, i32, i32 }
%struct.ZSTD_compressionParameters = type { i32, i32, i32, i32, i32, i32, i32 }
%struct.ZSTD_CCtx_params_s = type { i32, %struct.ZSTD_compressionParameters, %struct.ZSTD_frameParameters, i32, i32, i64, i32, i32, i32, i32, i64, i32, i32, %struct.ldmParams_t, i32, i32, i32, i32, i32, i32, i32, i64, i32, i32, %struct.ZSTD_customMem, i32, i32, ptr, ptr, i32 }
%struct.ldmParams_t = type { i32, i32, i32, i32, i32, i32 }
%struct.ZSTD_cwksp = type { ptr, ptr, ptr, ptr, ptr, ptr, ptr, i8, i32, i32, i32 }
%struct.ZSTD_window_t = type { ptr, ptr, ptr, i32, i32, i32 }
%struct.ZSTD_MatchState_t = type { %struct.ZSTD_window_t, i32, i32, i32, i32, ptr, [8 x i32], i64, i32, ptr, ptr, ptr, i32, i32, %struct.optState_t, ptr, %struct.ZSTD_compressionParameters, ptr, i32, i32 }
%struct.optState_t = type { ptr, ptr, ptr, ptr, ptr, ptr, i32, i32, i32, i32, i32, i32, i32, i32, i32, ptr, i32 }
%struct.ZSTD_compressedBlockState_t = type { %struct.ZSTD_entropyCTables_t, [3 x i32] }
%struct.ZSTD_entropyCTables_t = type { %struct.ZSTD_hufCTables_t, %struct.ZSTD_fseCTables_t }
%struct.ZSTD_hufCTables_t = type { [257 x i64], i32 }
%struct.ZSTD_fseCTables_t = type { [193 x i32], [363 x i32], [329 x i32], i32, i32, i32 }
%struct.ZSTD_CDict_s = type { ptr, i64, i32, ptr, %struct.ZSTD_cwksp, %struct.ZSTD_MatchState_t, %struct.ZSTD_compressedBlockState_t, %struct.ZSTD_customMem, i32, i32, i32 }

@ZSTD_defaultCMem = internal constant %struct.ZSTD_customMem zeroinitializer, align 8

; Function Attrs: nounwind uwtable
define i64 @ZSTD_CCtxParams_init(ptr noundef %0, i32 noundef %1) #0 {
  %3 = alloca i64, align 8
  %4 = alloca ptr, align 8
  %5 = alloca i32, align 4
  store ptr %0, ptr %4, align 8, !tbaa !79
  store i32 %1, ptr %5, align 4, !tbaa !53
  br label %6

6:                                                ; preds = %2
  %7 = load ptr, ptr %4, align 8, !tbaa !79
  %8 = icmp ne ptr %7, null
  br i1 %8, label %18, label %9

9:                                                ; preds = %6
  br label %10

10:                                               ; preds = %9
  br label %11

11:                                               ; preds = %10
  br label %12

12:                                               ; preds = %11
  br label %13

13:                                               ; preds = %12
  br label %14

14:                                               ; preds = %13
  br label %15

15:                                               ; preds = %14
  br label %16

16:                                               ; preds = %15
  br label %17

17:                                               ; preds = %16
  store i64 -1, ptr %3, align 8
  br label %27

18:                                               ; preds = %6
  br label %19

19:                                               ; preds = %18
  %20 = load ptr, ptr %4, align 8, !tbaa !79
  call void @llvm.memset.p0.i64(ptr align 8 %20, i8 0, i64 224, i1 false)
  %21 = load i32, ptr %5, align 4, !tbaa !53
  %22 = load ptr, ptr %4, align 8, !tbaa !79
  %23 = getelementptr inbounds nuw %struct.ZSTD_CCtx_params_s, ptr %22, i32 0, i32 3
  store i32 %21, ptr %23, align 4, !tbaa !81
  %24 = load ptr, ptr %4, align 8, !tbaa !79
  %25 = getelementptr inbounds nuw %struct.ZSTD_CCtx_params_s, ptr %24, i32 0, i32 2
  %26 = getelementptr inbounds nuw %struct.ZSTD_frameParameters, ptr %25, i32 0, i32 0
  store i32 1, ptr %26, align 8, !tbaa !82
  store i64 0, ptr %3, align 8
  br label %27

27:                                               ; preds = %19, %17
  %28 = load i64, ptr %3, align 8
  ret i64 %28
}

; Function Attrs: nounwind uwtable
define ptr @ZSTD_createCDict_advanced(ptr noundef %0, i64 noundef %1, i32 noundef %2, i32 noundef %3, ptr noundef byval(%struct.ZSTD_compressionParameters) align 8 %4, ptr noundef byval(%struct.ZSTD_customMem) align 8 %5) #0 {
  %7 = alloca ptr, align 8
  %8 = alloca i64, align 8
  %9 = alloca i32, align 4
  %10 = alloca i32, align 4
  %11 = alloca %struct.ZSTD_CCtx_params_s, align 8
  store ptr %0, ptr %7, align 8, !tbaa !15
  store i64 %1, ptr %8, align 8, !tbaa !3
  store i32 %2, ptr %9, align 4, !tbaa !53
  store i32 %3, ptr %10, align 4, !tbaa !53
  call void @llvm.lifetime.start.p0(i64 224, ptr %11) #15
  call void @llvm.memset.p0.i64(ptr align 8 %11, i8 0, i64 224, i1 false)
  br label %12

12:                                               ; preds = %6
  br label %13

13:                                               ; preds = %12
  br label %14

14:                                               ; preds = %13
  %15 = call i64 @ZSTD_CCtxParams_init(ptr noundef %11, i32 noundef 0)
  %16 = getelementptr inbounds nuw %struct.ZSTD_CCtx_params_s, ptr %11, i32 0, i32 1
  call void @llvm.memcpy.p0.p0.i64(ptr align 4 %16, ptr align 8 %4, i64 28, i1 false), !tbaa.struct !90
  %17 = getelementptr inbounds nuw %struct.ZSTD_CCtx_params_s, ptr %11, i32 0, i32 24
  call void @llvm.memcpy.p0.p0.i64(ptr align 8 %17, ptr align 8 %5, i64 24, i1 false), !tbaa.struct !14
  %18 = load ptr, ptr %7, align 8, !tbaa !15
  %19 = load i64, ptr %8, align 8, !tbaa !3
  %20 = load i32, ptr %9, align 4, !tbaa !53
  %21 = load i32, ptr %10, align 4, !tbaa !53
  %22 = call ptr @ZSTD_createCDict_advanced2(ptr noundef %18, i64 noundef %19, i32 noundef %20, i32 noundef %21, ptr noundef %11, ptr noundef byval(%struct.ZSTD_customMem) align 8 %5)
  call void @llvm.lifetime.end.p0(i64 224, ptr %11) #15
  ret ptr %22
}

; Function Attrs: nounwind uwtable
define ptr @ZSTD_createCDict_byReference(ptr noundef %0, i64 noundef %1, i32 noundef %2) #0 {
  %4 = alloca ptr, align 8
  %5 = alloca i64, align 8
  %6 = alloca i32, align 4
  %7 = alloca %struct.ZSTD_compressionParameters, align 8
  %8 = alloca ptr, align 8
  store ptr %0, ptr %4, align 8, !tbaa !15
  store i64 %1, ptr %5, align 8, !tbaa !3
  store i32 %2, ptr %6, align 4, !tbaa !53
  call void @llvm.lifetime.start.p0(i64 28, ptr %7) #15
  %9 = load i32, ptr %6, align 4, !tbaa !53
  %10 = load i64, ptr %5, align 8, !tbaa !3
  call void @ZSTD_getCParams_internal(ptr dead_on_unwind writable sret(%struct.ZSTD_compressionParameters) align 4 %7, i32 noundef %9, i64 noundef -1, i64 noundef %10, i32 noundef 2)
  call void @llvm.lifetime.start.p0(i64 8, ptr %8) #15
  %11 = load ptr, ptr %4, align 8, !tbaa !15
  %12 = load i64, ptr %5, align 8, !tbaa !3
  %13 = call ptr @ZSTD_createCDict_advanced(ptr noundef %11, i64 noundef %12, i32 noundef 1, i32 noundef 0, ptr noundef byval(%struct.ZSTD_compressionParameters) align 8 %7, ptr noundef byval(%struct.ZSTD_customMem) align 8 @ZSTD_defaultCMem)
  store ptr %13, ptr %8, align 8, !tbaa !148
  %14 = load ptr, ptr %8, align 8, !tbaa !148
  %15 = icmp ne ptr %14, null
  br i1 %15, label %16, label %26

16:                                               ; preds = %3
  %17 = load i32, ptr %6, align 4, !tbaa !53
  %18 = icmp eq i32 %17, 0
  br i1 %18, label %19, label %20

19:                                               ; preds = %16
  br label %22

20:                                               ; preds = %16
  %21 = load i32, ptr %6, align 4, !tbaa !53
  br label %22

22:                                               ; preds = %20, %19
  %23 = phi i32 [ 3, %19 ], [ %21, %20 ]
  %24 = load ptr, ptr %8, align 8, !tbaa !148
  %25 = getelementptr inbounds nuw %struct.ZSTD_CDict_s, ptr %24, i32 0, i32 9
  store i32 %23, ptr %25, align 4, !tbaa !260
  br label %26

26:                                               ; preds = %22, %3
  %27 = load ptr, ptr %8, align 8, !tbaa !148
  call void @llvm.lifetime.end.p0(i64 8, ptr %8) #15
  call void @llvm.lifetime.end.p0(i64 28, ptr %7) #15
  ret ptr %27
}