; Function Attrs: nounwind uwtable
define ptr @ZSTD_createCDict_byReference(ptr noundef %0, i64 noundef %1, i32 noundef %2) local_unnamed_addr #2 {
  %4 = alloca %struct.ZSTD_CCtx_params_s, align 8
  %5 = alloca %struct.ZSTD_compressionParameters, align 8
  call void @llvm.lifetime.start.p0(i64 28, ptr nonnull %5)
  call fastcc void @ZSTD_getCParams_internal(ptr dead_on_unwind noalias nonnull writable align 4 %5, i32 noundef %2, i64 noundef -1, i64 noundef %1, i32 noundef 2)
  call void @llvm.lifetime.start.p0(i64 224, ptr nonnull %4) #28
  %6 = getelementptr inbounds nuw i8, ptr %4, i64 32
  call void @llvm.memset.p0.i64(ptr noundef nonnull align 8 dereferenceable(224) %4, i8 0, i64 224, i1 false)
  store i32 1, ptr %6, align 8, !tbaa !44
  %7 = getelementptr inbounds nuw i8, ptr %4, i64 4
  call void @llvm.memcpy.p0.p0.i64(ptr noundef nonnull align 4 dereferenceable(28) %7, ptr noundef nonnull readonly align 8 dereferenceable(28) %5, i64 28, i1 false), !tbaa.struct !74
  %8 = getelementptr inbounds nuw i8, ptr %4, i64 168
  call void @llvm.memset.p0.i64(ptr noundef nonnull align 8 dereferenceable(24) %8, i8 0, i64 24, i1 false)
  %9 = call ptr @ZSTD_createCDict_advanced2(ptr noundef %0, i64 noundef %1, i32 noundef 1, i32 noundef 0, ptr noundef nonnull %4, ptr noundef nonnull byval(%struct.ZSTD_customMem) align 8 @ZSTD_defaultCMem)
  call void @llvm.lifetime.end.p0(i64 224, ptr nonnull %4) #28
  call void @llvm.lifetime.end.p0(i64 28, ptr nonnull %5)
  %.not = icmp eq ptr %9, null
  br i1 %.not, label %14, label %10

10:                                               ; preds = %3
  %11 = icmp eq i32 %2, 0
  %12 = select i1 %11, i32 3, i32 %2
  %13 = getelementptr inbounds nuw i8, ptr %9, i64 6068
  store i32 %12, ptr %13, align 4, !tbaa !266
  br label %14

14:                                               ; preds = %10, %3
  ret ptr %9
}